target datalayout = "e-m:e-p270:32:32-p271:32:32-p272:64:64-i64:64-i128:128-f80:128-n8:16:32:64-S128"
target triple = "x86_64-pc-linux-gnu"

%"class.google::protobuf::FileDescriptorProto" = type { %"class.google::protobuf::Message", %"class.google::protobuf::internal::HasBits", %"class.google::protobuf::internal::CachedSize", %"class.google::protobuf::RepeatedPtrField", %"class.google::protobuf::RepeatedPtrField.11", %"class.google::protobuf::RepeatedPtrField.12", %"class.google::protobuf::RepeatedPtrField.13", %"class.google::protobuf::RepeatedPtrField.14", %"class.google::protobuf::RepeatedField", %"class.google::protobuf::RepeatedField", %"struct.google::protobuf::internal::ArenaStringPtr", %"struct.google::protobuf::internal::ArenaStringPtr", %"struct.google::protobuf::internal::ArenaStringPtr", ptr, ptr }
%"class.google::protobuf::Message" = type { %"class.google::protobuf::MessageLite" }
%"class.google::protobuf::MessageLite" = type { ptr, %"class.google::protobuf::internal::InternalMetadata" }
%"class.google::protobuf::internal::InternalMetadata" = type { i64 }
%"class.google::protobuf::internal::HasBits" = type { [1 x i32] }
%"class.google::protobuf::internal::CachedSize" = type { %"struct.std::atomic" }
%"struct.std::atomic" = type { %"struct.std::__atomic_base" }
%"struct.std::__atomic_base" = type { i32 }
%"class.google::protobuf::RepeatedPtrField" = type { %"class.google::protobuf::internal::RepeatedPtrFieldBase" }
%"class.google::protobuf::internal::RepeatedPtrFieldBase" = type { ptr, i32, i32, ptr }
%"class.google::protobuf::RepeatedPtrField.11" = type { %"class.google::protobuf::internal::RepeatedPtrFieldBase" }
%"class.google::protobuf::RepeatedPtrField.12" = type { %"class.google::protobuf::internal::RepeatedPtrFieldBase" }
%"class.google::protobuf::RepeatedPtrField.13" = type { %"class.google::protobuf::internal::RepeatedPtrFieldBase" }
%"class.google::protobuf::RepeatedPtrField.14" = type { %"class.google::protobuf::internal::RepeatedPtrFieldBase" }
%"class.google::protobuf::RepeatedField" = type { i32, i32, ptr }
%"struct.google::protobuf::internal::ArenaStringPtr" = type { %"class.google::protobuf::internal::TaggedPtr" }
%"class.google::protobuf::internal::TaggedPtr" = type { ptr }
%"class.google::protobuf::DescriptorDatabase" = type { ptr }
%"class.google::protobuf::MergedDescriptorDatabase" = type { %"class.google::protobuf::DescriptorDatabase", %"class.std::vector.110" }
%"class.std::vector.110" = type { %"struct.std::_Vector_base.111" }
%"struct.std::_Vector_base.111" = type { %"struct.std::_Vector_base<google::protobuf::DescriptorDatabase *, std::allocator<google::protobuf::DescriptorDatabase *>>::_Vector_impl" }
%"struct.std::_Vector_base<google::protobuf::DescriptorDatabase *, std::allocator<google::protobuf::DescriptorDatabase *>>::_Vector_impl" = type { %"struct.std::_Vector_base<google::protobuf::DescriptorDatabase *, std::allocator<google::protobuf::DescriptorDatabase *>>::_Vector_impl_data" }
%"struct.std::_Vector_base<google::protobuf::DescriptorDatabase *, std::allocator<google::protobuf::DescriptorDatabase *>>::_Vector_impl_data" = type { ptr, ptr, ptr }

; Function Attrs: mustprogress nounwind uwtable
define linkonce_odr hidden noundef i64 @_ZNK6google8protobuf8internal9TaggedPtrINSt7__cxx1112basic_stringIcSt11char_traitsIcESaIcEEEE6as_intEv(ptr noundef nonnull align 8 dereferenceable(8) %0) #4 comdat align 2 {
  %2 = alloca ptr, align 8
  store ptr %0, ptr %2, align 8, !tbaa !330
  %3 = load ptr, ptr %2, align 8
  %4 = getelementptr inbounds nuw %"class.google::protobuf::internal::TaggedPtr", ptr %3, i32 0, i32 0
  %5 = load ptr, ptr %4, align 8, !tbaa !332
  %6 = ptrtoint ptr %5 to i64
  ret i64 %6
}

; Function Attrs: mustprogress uwtable
define linkonce_odr hidden noundef ptr @_ZNK6google8protobuf8internal9TaggedPtrINSt7__cxx1112basic_stringIcSt11char_traitsIcESaIcEEEE3GetEv(ptr noundef nonnull align 8 dereferenceable(8) %0) #6 comdat align 2 {
  %2 = alloca ptr, align 8
  store ptr %0, ptr %2, align 8, !tbaa !330
  %3 = load ptr, ptr %2, align 8
  %4 = call noundef i64 @_ZNK6google8protobuf8internal9TaggedPtrINSt7__cxx1112basic_stringIcSt11char_traitsIcESaIcEEEE6as_intEv(ptr noundef nonnull align 8 dereferenceable(8) %3)
  %5 = and i64 %4, -2
  %6 = inttoptr i64 %5 to ptr
  ret ptr %6
}

; Function Attrs: alwaysinline mustprogress uwtable
define linkonce_odr hidden noundef nonnull align 8 dereferenceable(32) ptr @_ZNK6google8protobuf8internal14ArenaStringPtr3GetB5cxx11Ev(ptr noundef nonnull align 8 dereferenceable(8) %0) #13 comdat align 2 {
  %2 = alloca ptr, align 8
  store ptr %0, ptr %2, align 8, !tbaa !328
  %3 = load ptr, ptr %2, align 8
  %4 = getelementptr inbounds nuw %"struct.google::protobuf::internal::ArenaStringPtr", ptr %3, i32 0, i32 0
  %5 = call noundef ptr @_ZNK6google8protobuf8internal9TaggedPtrINSt7__cxx1112basic_stringIcSt11char_traitsIcESaIcEEEE3GetEv(ptr noundef nonnull align 8 dereferenceable(8) %4)
  ret ptr %5
}

; Function Attrs: inlinehint mustprogress uwtable
define linkonce_odr hidden noundef nonnull align 8 dereferenceable(32) ptr @_ZNK6google8protobuf19FileDescriptorProto14_internal_nameB5cxx11Ev(ptr noundef nonnull align 8 dereferenceable(216) %0) #11 comdat align 2 {
  %2 = alloca ptr, align 8
  store ptr %0, ptr %2, align 8, !tbaa !24
  %3 = load ptr, ptr %2, align 8
  %4 = getelementptr inbounds nuw %"class.google::protobuf::FileDescriptorProto", ptr %3, i32 0, i32 10
  %5 = call noundef nonnull align 8 dereferenceable(32) ptr @_ZNK6google8protobuf8internal14ArenaStringPtr3GetB5cxx11Ev(ptr noundef nonnull align 8 dereferenceable(8) %4)
  ret ptr %5
}

; Function Attrs: inlinehint mustprogress uwtable
define linkonce_odr hidden noundef nonnull align 8 dereferenceable(32) ptr @_ZNK6google8protobuf19FileDescriptorProto4nameB5cxx11Ev(ptr noundef nonnull align 8 dereferenceable(216) %0) #11 comdat align 2 {
  %2 = alloca ptr, align 8
  store ptr %0, ptr %2, align 8, !tbaa !24
  %3 = load ptr, ptr %2, align 8
  %4 = call noundef nonnull align 8 dereferenceable(32) ptr @_ZNK6google8protobuf19FileDescriptorProto14_internal_nameB5cxx11Ev(ptr noundef nonnull align 8 dereferenceable(216) %3)
  ret ptr %4
}

; Function Attrs: inlinehint mustprogress uwtable
define linkonce_odr hidden void @_ZN6google8protobuf19FileDescriptorProtoC2Ev(ptr noundef nonnull align 8 dereferenceable(216) %0) unnamed_addr #11 comdat align 2 {
  %2 = alloca ptr, align 8
  store ptr %0, ptr %2, align 8, !tbaa !24
  %3 = load ptr, ptr %2, align 8
  call void @_ZN6google8protobuf19FileDescriptorProtoC2EPNS0_5ArenaEb(ptr noundef nonnull align 8 dereferenceable(216) %3, ptr noundef null, i1 noundef zeroext false)
  ret void
}

; Function Attrs: mustprogress nounwind uwtable
define linkonce_odr hidden noundef nonnull align 8 dereferenceable(8) ptr @_ZNSt6vectorIPN6google8protobuf18DescriptorDatabaseESaIS3_EEixEm(ptr noundef nonnull align 8 dereferenceable(24) %0, i64 noundef %1) #4 comdat align 2 {
  %3 = alloca ptr, align 8
  %4 = alloca i64, align 8
  store ptr %0, ptr %3, align 8, !tbaa !240
  store i64 %1, ptr %4, align 8, !tbaa !95
  %5 = load ptr, ptr %3, align 8
  %6 = getelementptr inbounds nuw %"struct.std::_Vector_base.111", ptr %5, i32 0, i32 0
  %7 = getelementptr inbounds nuw %"struct.std::_Vector_base<google::protobuf::DescriptorDatabase *, std::allocator<google::protobuf::DescriptorDatabase *>>::_Vector_impl_data", ptr %6, i32 0, i32 0
  %8 = load ptr, ptr %7, align 8, !tbaa !247
  %9 = load i64, ptr %4, align 8, !tbaa !95
  %10 = getelementptr inbounds nuw ptr, ptr %8, i64 %9
  ret ptr %10
}

; Function Attrs: mustprogress nounwind uwtable
define linkonce_odr hidden noundef i64 @_ZNKSt6vectorIPN6google8protobuf18DescriptorDatabaseESaIS3_EE4sizeEv(ptr noundef nonnull align 8 dereferenceable(24) %0) #4 comdat align 2 {
  %2 = alloca ptr, align 8
  store ptr %0, ptr %2, align 8, !tbaa !240
  %3 = load ptr, ptr %2, align 8
  %4 = getelementptr inbounds nuw %"struct.std::_Vector_base.111", ptr %3, i32 0, i32 0
  %5 = getelementptr inbounds nuw %"struct.std::_Vector_base<google::protobuf::DescriptorDatabase *, std::allocator<google::protobuf::DescriptorDatabase *>>::_Vector_impl_data", ptr %4, i32 0, i32 1
  %6 = load ptr, ptr %5, align 8, !tbaa !244
  %7 = getelementptr inbounds nuw %"struct.std::_Vector_base.111", ptr %3, i32 0, i32 0
  %8 = getelementptr inbounds nuw %"struct.std::_Vector_base<google::protobuf::DescriptorDatabase *, std::allocator<google::protobuf::DescriptorDatabase *>>::_Vector_impl_data", ptr %7, i32 0, i32 0
  %9 = load ptr, ptr %8, align 8, !tbaa !247
  %10 = ptrtoint ptr %6 to i64
  %11 = ptrtoint ptr %9 to i64
  %12 = sub i64 %10, %11
  %13 = sdiv exact i64 %12, 8
  ret i64 %13
}

; Function Attrs: mustprogress uwtable
define hidden noundef zeroext i1 @_ZN6google8protobuf24MergedDescriptorDatabase24FindFileContainingSymbolERKNSt7__cxx1112basic_stringIcSt11char_traitsIcESaIcEEEPNS0_19FileDescriptorProtoE(ptr noundef nonnull align 8 dereferenceable(32) %0, ptr noundef nonnull align 8 dereferenceable(32) %1, ptr noundef %2) unnamed_addr #6 align 2 personality ptr @__gxx_personality_v0 {
  %4 = alloca i1, align 1
  %5 = alloca ptr, align 8
  %6 = alloca ptr, align 8
  %7 = alloca ptr, align 8
  %8 = alloca i64, align 8
  %9 = alloca i32, align 4
  %10 = alloca %"class.google::protobuf::FileDescriptorProto", align 8
  %11 = alloca i64, align 8
  %12 = alloca ptr, align 8
  %13 = alloca i32, align 4
  store ptr %0, ptr %5, align 8, !tbaa !238
  store ptr %1, ptr %6, align 8, !tbaa !12
  store ptr %2, ptr %7, align 8, !tbaa !24
  %14 = load ptr, ptr %5, align 8
  call void @llvm.lifetime.start.p0(i64 8, ptr %8) #3
  store i64 0, ptr %8, align 8, !tbaa !95
  br label %15

15:                                               ; preds = %65, %3
  %16 = load i64, ptr %8, align 8, !tbaa !95
  %17 = getelementptr inbounds nuw %"class.google::protobuf::MergedDescriptorDatabase", ptr %14, i32 0, i32 1
  %18 = call noundef i64 @_ZNKSt6vectorIPN6google8protobuf18DescriptorDatabaseESaIS3_EE4sizeEv(ptr noundef nonnull align 8 dereferenceable(24) %17) #3
  %19 = icmp ult i64 %16, %18
  br i1 %19, label %21, label %20

20:                                               ; preds = %15
  store i32 2, ptr %9, align 4
  br label %68

21:                                               ; preds = %15
  %22 = getelementptr inbounds nuw %"class.google::protobuf::MergedDescriptorDatabase", ptr %14, i32 0, i32 1
  %23 = load i64, ptr %8, align 8, !tbaa !95
  %24 = call noundef nonnull align 8 dereferenceable(8) ptr @_ZNSt6vectorIPN6google8protobuf18DescriptorDatabaseESaIS3_EEixEm(ptr noundef nonnull align 8 dereferenceable(24) %22, i64 noundef %23) #3
  %25 = load ptr, ptr %24, align 8, !tbaa !3
  %26 = load ptr, ptr %6, align 8, !tbaa !12
  %27 = load ptr, ptr %7, align 8, !tbaa !24
  %28 = load ptr, ptr %25, align 8, !tbaa !10
  %29 = getelementptr inbounds ptr, ptr %28, i64 3
  %30 = load ptr, ptr %29, align 8
  %31 = call noundef zeroext i1 %30(ptr noundef nonnull align 8 dereferenceable(8) %25, ptr noundef nonnull align 8 dereferenceable(32) %26, ptr noundef %27)
  br i1 %31, label %32, label %64

32:                                               ; preds = %21
  call void @llvm.lifetime.start.p0(i64 216, ptr %10) #3
  call void @_ZN6google8protobuf19FileDescriptorProtoC2Ev(ptr noundef nonnull align 8 dereferenceable(216) %10)
  call void @llvm.lifetime.start.p0(i64 8, ptr %11) #3
  store i64 0, ptr %11, align 8, !tbaa !95
  br label %33

33:                                               ; preds = %57, %32
  %34 = load i64, ptr %11, align 8, !tbaa !95
  %35 = load i64, ptr %8, align 8, !tbaa !95
  %36 = icmp ult i64 %34, %35
  br i1 %36, label %38, label %37

37:                                               ; preds = %33
  store i32 5, ptr %9, align 4
  br label %60

38:                                               ; preds = %33
  %39 = getelementptr inbounds nuw %"class.google::protobuf::MergedDescriptorDatabase", ptr %14, i32 0, i32 1
  %40 = load i64, ptr %11, align 8, !tbaa !95
  %41 = call noundef nonnull align 8 dereferenceable(8) ptr @_ZNSt6vectorIPN6google8protobuf18DescriptorDatabaseESaIS3_EEixEm(ptr noundef nonnull align 8 dereferenceable(24) %39, i64 noundef %40) #3
  %42 = load ptr, ptr %41, align 8, !tbaa !3
  %43 = load ptr, ptr %7, align 8, !tbaa !24
  %44 = invoke noundef nonnull align 8 dereferenceable(32) ptr @_ZNK6google8protobuf19FileDescriptorProto4nameB5cxx11Ev(ptr noundef nonnull align 8 dereferenceable(216) %43)
          to label %45 unwind label %52

45:                                               ; preds = %38
  %46 = load ptr, ptr %42, align 8, !tbaa !10
  %47 = getelementptr inbounds ptr, ptr %46, i64 2
  %48 = load ptr, ptr %47, align 8
  %49 = invoke noundef zeroext i1 %48(ptr noundef nonnull align 8 dereferenceable(8) %42, ptr noundef nonnull align 8 dereferenceable(32) %44, ptr noundef %10)
          to label %50 unwind label %52

50:                                               ; preds = %45
  br i1 %49, label %51, label %56

51:                                               ; preds = %50
  store i1 false, ptr %4, align 1
  store i32 1, ptr %9, align 4
  br label %60

52:                                               ; preds = %45, %38
  %53 = landingpad { ptr, i32 }
          cleanup
  %54 = extractvalue { ptr, i32 } %53, 0
  store ptr %54, ptr %12, align 8
  %55 = extractvalue { ptr, i32 } %53, 1
  store i32 %55, ptr %13, align 4
  call void @llvm.lifetime.end.p0(i64 8, ptr %11) #3
  call void @_ZN6google8protobuf19FileDescriptorProtoD1Ev(ptr noundef nonnull align 8 dereferenceable(216) %10) #3
  call void @llvm.lifetime.end.p0(i64 216, ptr %10) #3
  call void @llvm.lifetime.end.p0(i64 8, ptr %8) #3
  br label %73

56:                                               ; preds = %50
  br label %57

57:                                               ; preds = %56
  %58 = load i64, ptr %11, align 8, !tbaa !95
  %59 = add i64 %58, 1
  store i64 %59, ptr %11, align 8, !tbaa !95
  br label %33, !llvm.loop !252

60:                                               ; preds = %51, %37
  call void @llvm.lifetime.end.p0(i64 8, ptr %11) #3
  %61 = load i32, ptr %9, align 4
  switch i32 %61, label %63 [
    i32 5, label %62
  ]

62:                                               ; preds = %60
  store i1 true, ptr %4, align 1
  store i32 1, ptr %9, align 4
  br label %63

63:                                               ; preds = %62, %60
  call void @_ZN6google8protobuf19FileDescriptorProtoD1Ev(ptr noundef nonnull align 8 dereferenceable(216) %10) #3
  call void @llvm.lifetime.end.p0(i64 216, ptr %10) #3
  br label %68

64:                                               ; preds = %21
  br label %65

65:                                               ; preds = %64
  %66 = load i64, ptr %8, align 8, !tbaa !95
  %67 = add i64 %66, 1
  store i64 %67, ptr %8, align 8, !tbaa !95
  br label %15, !llvm.loop !253

68:                                               ; preds = %63, %20
  call void @llvm.lifetime.end.p0(i64 8, ptr %8) #3
  %69 = load i32, ptr %9, align 4
  switch i32 %69, label %78 [
    i32 2, label %70
    i32 1, label %71
  ]

70:                                               ; preds = %68
  store i1 false, ptr %4, align 1
  br label %71

71:                                               ; preds = %70, %68
  %72 = load i1, ptr %4, align 1
  ret i1 %72

73:                                               ; preds = %52
  %74 = load ptr, ptr %12, align 8
  %75 = load i32, ptr %13, align 4
  %76 = insertvalue { ptr, i32 } poison, ptr %74, 0
  %77 = insertvalue { ptr, i32 } %76, i32 %75, 1
  resume { ptr, i32 } %77

78:                                               ; preds = %68
  unreachable
}