; Function Attrs: mustprogress uwtable
define hidden noundef zeroext i1 @_ZN6google8protobuf24MergedDescriptorDatabase24FindFileContainingSymbolERKNSt7__cxx1112basic_stringIcSt11char_traitsIcESaIcEEEPNS0_19FileDescriptorProtoE(ptr noundef nonnull readonly align 8 captures(none) dereferenceable(32) %0, ptr noundef nonnull align 8 dereferenceable(32) %1, ptr noundef %2) unnamed_addr #6 align 2 personality ptr @__gxx_personality_v0 {
  %4 = alloca %"class.google::protobuf::FileDescriptorProto", align 8
  %5 = getelementptr inbounds nuw i8, ptr %0, i64 8
  %6 = getelementptr inbounds nuw i8, ptr %0, i64 16
  %7 = load ptr, ptr %6, align 8, !tbaa !264
  %8 = load ptr, ptr %5, align 8, !tbaa !261
  %.not2127.not = icmp eq ptr %7, %8
  br i1 %.not2127.not, label %.loopexit, label %.lr.ph

.lr.ph:                                           ; preds = %3, %34
  %9 = phi ptr [ %37, %34 ], [ %8, %3 ]
  %.01528 = phi i64 [ %35, %34 ], [ 0, %3 ]
  %10 = getelementptr inbounds nuw ptr, ptr %9, i64 %.01528
  %11 = load ptr, ptr %10, align 8, !tbaa !259
  %12 = load ptr, ptr %11, align 8, !tbaa !3
  %13 = getelementptr inbounds nuw i8, ptr %12, i64 24
  %14 = load ptr, ptr %13, align 8
  %15 = tail call noundef zeroext i1 %14(ptr noundef nonnull align 8 dereferenceable(8) %11, ptr noundef nonnull align 8 dereferenceable(32) %1, ptr noundef %2)
  br i1 %15, label %16, label %34

16:                                               ; preds = %.lr.ph
  call void @llvm.lifetime.start.p0(i64 216, ptr nonnull %4) #26
  call void @_ZN6google8protobuf19FileDescriptorProtoC2EPNS0_5ArenaEb(ptr noundef nonnull align 8 dereferenceable(216) %4, ptr noundef null, i1 noundef zeroext false)
  %.not30 = icmp eq i64 %.01528, 0
  br i1 %.not30, label %._crit_edge, label %.lr.ph33

.lr.ph33:                                         ; preds = %16
  %17 = getelementptr inbounds nuw i8, ptr %2, i64 176
  br label %18

18:                                               ; preds = %30, %.lr.ph33
  %.01631 = phi i64 [ 0, %.lr.ph33 ], [ %31, %30 ]
  %19 = load ptr, ptr %5, align 8, !tbaa !261
  %20 = getelementptr inbounds nuw ptr, ptr %19, i64 %.01631
  %21 = load ptr, ptr %20, align 8, !tbaa !259
  %22 = load ptr, ptr %17, align 8, !tbaa !20
  %23 = ptrtoint ptr %22 to i64
  %24 = and i64 %23, -2
  %25 = inttoptr i64 %24 to ptr
  %26 = load ptr, ptr %21, align 8, !tbaa !3
  %27 = getelementptr inbounds nuw i8, ptr %26, i64 16
  %28 = load ptr, ptr %27, align 8
  %29 = invoke noundef zeroext i1 %28(ptr noundef nonnull align 8 dereferenceable(8) %21, ptr noundef nonnull align 8 dereferenceable(32) %25, ptr noundef nonnull %4)
          to label %30 unwind label %32

30:                                               ; preds = %18
  %31 = add nuw i64 %.01631, 1
  %exitcond.not = icmp eq i64 %31, %.01528
  %or.cond = select i1 %29, i1 true, i1 %exitcond.not
  br i1 %or.cond, label %._crit_edge.loopexit, label %18, !llvm.loop !267

32:                                               ; preds = %18
  %33 = landingpad { ptr, i32 }
          cleanup
  call void @_ZN6google8protobuf19FileDescriptorProtoD1Ev(ptr noundef nonnull align 8 dereferenceable(216) %4) #26
  call void @llvm.lifetime.end.p0(i64 216, ptr nonnull %4) #26
  resume { ptr, i32 } %33

._crit_edge.loopexit:                             ; preds = %30
  %.not.lcssa.ph = xor i1 %29, true
  br label %._crit_edge

._crit_edge:                                      ; preds = %._crit_edge.loopexit, %16
  %.not.lcssa = phi i1 [ true, %16 ], [ %.not.lcssa.ph, %._crit_edge.loopexit ]
  call void @_ZN6google8protobuf19FileDescriptorProtoD1Ev(ptr noundef nonnull align 8 dereferenceable(216) %4) #26
  call void @llvm.lifetime.end.p0(i64 216, ptr nonnull %4) #26
  br label %.loopexit

34:                                               ; preds = %.lr.ph
  %35 = add nuw i64 %.01528, 1
  %36 = load ptr, ptr %6, align 8, !tbaa !264
  %37 = load ptr, ptr %5, align 8, !tbaa !261
  %38 = ptrtoint ptr %36 to i64
  %39 = ptrtoint ptr %37 to i64
  %40 = sub i64 %38, %39
  %41 = ashr exact i64 %40, 3
  %.not21 = icmp ult i64 %35, %41
  br i1 %.not21, label %.lr.ph, label %.loopexit, !llvm.loop !268

.loopexit:                                        ; preds = %34, %3, %._crit_edge
  %.not2124 = phi i1 [ true, %._crit_edge ], [ false, %3 ], [ false, %34 ]
  %.0 = phi i1 [ %.not.lcssa, %._crit_edge ], [ undef, %3 ], [ undef, %34 ]
  %spec.select20 = and i1 %.not2124, %.0
  ret i1 %spec.select20
}